target datalayout = "e-m:e-p270:32:32-p271:32:32-p272:64:64-i64:64-i128:128-f80:128-n8:16:32:64-S128"
target triple = "x86_64-pc-linux-gnu"

%class.JDK_Version = type { i32, i32, i32, i32, i32 }
%class.DCmd = type <{ ptr, ptr, i8, [7 x i8] }>

@.str.19 = private unnamed_addr constant [14 x i8] c"%s version %s\00", align 1
@.str.20 = private unnamed_addr constant [16 x i8] c"JDK %d.%d.%d.%d\00", align 1
@.str.21 = private unnamed_addr constant [13 x i8] c"JDK %d.%d.%d\00", align 1
@_ZN11JDK_Version8_currentE = external global %class.JDK_Version, align 4

; Function Attrs: mustprogress nounwind uwtable
define linkonce_odr hidden noundef i32 @_ZNK11JDK_Version16security_versionEv(ptr noundef nonnull align 4 dereferenceable(20) %0) #1 comdat align 2 {
  %2 = alloca ptr, align 8
  store ptr %0, ptr %2, align 8
  %3 = load ptr, ptr %2, align 8
  %4 = getelementptr inbounds %class.JDK_Version, ptr %3, i32 0, i32 2
  %5 = load i32, ptr %4, align 4
  ret i32 %5
}

; Function Attrs: mustprogress nounwind uwtable
define linkonce_odr hidden noundef i32 @_ZNK11JDK_Version13minor_versionEv(ptr noundef nonnull align 4 dereferenceable(20) %0) #1 comdat align 2 {
  %2 = alloca ptr, align 8
  store ptr %0, ptr %2, align 8
  %3 = load ptr, ptr %2, align 8
  %4 = getelementptr inbounds %class.JDK_Version, ptr %3, i32 0, i32 1
  %5 = load i32, ptr %4, align 4
  ret i32 %5
}

; Function Attrs: mustprogress nounwind uwtable
define linkonce_odr hidden noundef i32 @_ZNK11JDK_Version13major_versionEv(ptr noundef nonnull align 4 dereferenceable(20) %0) #1 comdat align 2 {
  %2 = alloca ptr, align 8
  store ptr %0, ptr %2, align 8
  %3 = load ptr, ptr %2, align 8
  %4 = getelementptr inbounds %class.JDK_Version, ptr %3, i32 0, i32 0
  %5 = load i32, ptr %4, align 4
  ret i32 %5
}

; Function Attrs: mustprogress nounwind uwtable
define linkonce_odr hidden noundef i32 @_ZNK11JDK_Version13patch_versionEv(ptr noundef nonnull align 4 dereferenceable(20) %0) #1 comdat align 2 {
  %2 = alloca ptr, align 8
  store ptr %0, ptr %2, align 8
  %3 = load ptr, ptr %2, align 8
  %4 = getelementptr inbounds %class.JDK_Version, ptr %3, i32 0, i32 3
  %5 = load i32, ptr %4, align 4
  ret i32 %5
}

; Function Attrs: mustprogress nounwind uwtable
define linkonce_odr hidden void @_ZN11JDK_Version7currentEv(ptr dead_on_unwind noalias writable sret(%class.JDK_Version) align 4 %0) #1 comdat align 2 {
  call void @llvm.memcpy.p0.p0.i64(ptr align 4 %0, ptr align 4 @_ZN11JDK_Version8_currentE, i64 20, i1 false)
  ret void
}

; Function Attrs: mustprogress nounwind uwtable
define linkonce_odr hidden noundef ptr @_ZNK4DCmd6outputEv(ptr noundef nonnull align 8 dereferenceable(17) %0) #1 comdat align 2 {
  %2 = alloca ptr, align 8
  store ptr %0, ptr %2, align 8
  %3 = load ptr, ptr %2, align 8
  %4 = getelementptr inbounds %class.DCmd, ptr %3, i32 0, i32 1
  %5 = load ptr, ptr %4, align 8
  ret ptr %5
}

; Function Attrs: mustprogress nounwind uwtable
define hidden void @_ZN11VersionDCmd7executeE10DCmdSourceP10JavaThread(ptr noundef nonnull align 8 dereferenceable(17) %0, i32 noundef %1, ptr noundef %2) unnamed_addr #1 align 2 {
  %4 = alloca ptr, align 8
  %5 = alloca i32, align 4
  %6 = alloca ptr, align 8
  %7 = alloca %class.JDK_Version, align 4
  store ptr %0, ptr %4, align 8
  store i32 %1, ptr %5, align 4
  store ptr %2, ptr %6, align 8
  %8 = load ptr, ptr %4, align 8
  %9 = call noundef ptr @_ZNK4DCmd6outputEv(ptr noundef nonnull align 8 dereferenceable(17) %8)
  %10 = call noundef ptr @_ZN19Abstract_VM_Version7vm_nameEv()
  %11 = call noundef ptr @_ZN19Abstract_VM_Version10vm_releaseEv()
  call void (ptr, ptr, ...) @_ZN12outputStream8print_crEPKcz(ptr noundef nonnull align 8 dereferenceable(56) %9, ptr noundef @.str.19, ptr noundef %10, ptr noundef %11)
  call void @_ZN11JDK_Version7currentEv(ptr dead_on_unwind writable sret(%class.JDK_Version) align 4 %7)
  %12 = call noundef i32 @_ZNK11JDK_Version13patch_versionEv(ptr noundef nonnull align 4 dereferenceable(20) %7)
  %13 = icmp sgt i32 %12, 0
  br i1 %13, label %14, label %20

14:                                               ; preds = %3
  %15 = call noundef ptr @_ZNK4DCmd6outputEv(ptr noundef nonnull align 8 dereferenceable(17) %8)
  %16 = call noundef i32 @_ZNK11JDK_Version13major_versionEv(ptr noundef nonnull align 4 dereferenceable(20) %7)
  %17 = call noundef i32 @_ZNK11JDK_Version13minor_versionEv(ptr noundef nonnull align 4 dereferenceable(20) %7)
  %18 = call noundef i32 @_ZNK11JDK_Version16security_versionEv(ptr noundef nonnull align 4 dereferenceable(20) %7)
  %19 = call noundef i32 @_ZNK11JDK_Version13patch_versionEv(ptr noundef nonnull align 4 dereferenceable(20) %7)
  call void (ptr, ptr, ...) @_ZN12outputStream8print_crEPKcz(ptr noundef nonnull align 8 dereferenceable(56) %15, ptr noundef @.str.20, i32 noundef %16, i32 noundef %17, i32 noundef %18, i32 noundef %19)
  br label %25

20:                                               ; preds = %3
  %21 = call noundef ptr @_ZNK4DCmd6outputEv(ptr noundef nonnull align 8 dereferenceable(17) %8)
  %22 = call noundef i32 @_ZNK11JDK_Version13major_versionEv(ptr noundef nonnull align 4 dereferenceable(20) %7)
  %23 = call noundef i32 @_ZNK11JDK_Version13minor_versionEv(ptr noundef nonnull align 4 dereferenceable(20) %7)
  %24 = call noundef i32 @_ZNK11JDK_Version16security_versionEv(ptr noundef nonnull align 4 dereferenceable(20) %7)
  call void (ptr, ptr, ...) @_ZN12outputStream8print_crEPKcz(ptr noundef nonnull align 8 dereferenceable(56) %21, ptr noundef @.str.21, i32 noundef %22, i32 noundef %23, i32 noundef %24)
  br label %25

25:                                               ; preds = %20, %14
  ret void
}