; Function Attrs: mustprogress nounwind uwtable
define hidden void @_ZN11VersionDCmd7executeE10DCmdSourceP10JavaThread(ptr nocapture noundef nonnull readonly align 8 dereferenceable(17) %0, i32 %1, ptr nocapture readnone %2) unnamed_addr #0 align 2 {
  %4 = getelementptr inbounds i8, ptr %0, i64 8
  %5 = load ptr, ptr %4, align 8
  %6 = tail call noundef ptr @_ZN19Abstract_VM_Version7vm_nameEv() #17
  %7 = tail call noundef ptr @_ZN19Abstract_VM_Version10vm_releaseEv() #17
  tail call void (ptr, ptr, ...) @_ZN12outputStream8print_crEPKcz(ptr noundef nonnull align 8 dereferenceable(56) %5, ptr noundef nonnull @.str.19, ptr noundef %6, ptr noundef %7) #17
  %.sroa.0.0.copyload = load i32, ptr @_ZN11JDK_Version8_currentE, align 4
  %.sroa.3.0.copyload = load i32, ptr getelementptr inbounds (i8, ptr @_ZN11JDK_Version8_currentE, i64 4), align 4
  %.sroa.5.0.copyload = load i32, ptr getelementptr inbounds (i8, ptr @_ZN11JDK_Version8_currentE, i64 8), align 4
  %.sroa.7.0.copyload = load i32, ptr getelementptr inbounds (i8, ptr @_ZN11JDK_Version8_currentE, i64 12), align 4
  %8 = icmp sgt i32 %.sroa.7.0.copyload, 0
  %9 = load ptr, ptr %4, align 8
  br i1 %8, label %10, label %11

10:                                               ; preds = %3
  tail call void (ptr, ptr, ...) @_ZN12outputStream8print_crEPKcz(ptr noundef nonnull align 8 dereferenceable(56) %9, ptr noundef nonnull @.str.20, i32 noundef %.sroa.0.0.copyload, i32 noundef %.sroa.3.0.copyload, i32 noundef %.sroa.5.0.copyload, i32 noundef %.sroa.7.0.copyload) #17
  br label %12

11:                                               ; preds = %3
  tail call void (ptr, ptr, ...) @_ZN12outputStream8print_crEPKcz(ptr noundef nonnull align 8 dereferenceable(56) %9, ptr noundef nonnull @.str.21, i32 noundef %.sroa.0.0.copyload, i32 noundef %.sroa.3.0.copyload, i32 noundef %.sroa.5.0.copyload) #17
  br label %12

12:                                               ; preds = %11, %10
  ret void
}